; ModuleID = 'test.cpp'
source_filename = "test.cpp"
target datalayout = "e-m:o-p270:32:32-p271:32:32-p272:64:64-i64:64-f80:128-n8:16:32:64-S128"
target triple = "x86_64-apple-macosx14.0.0"

%"class.std::__1::basic_ostream" = type { ptr, %"class.std::__1::basic_ios.base" }
%"class.std::__1::basic_ios.base" = type <{ %"class.std::__1::ios_base", ptr, i32 }>
%"class.std::__1::ios_base" = type { ptr, i32, i64, i64, i32, i32, ptr, ptr, ptr, ptr, i64, i64, ptr, i64, i64, ptr, i64, i64 }
%"class.std::__1::locale::id" = type <{ %"struct.std::__1::once_flag", i32, [4 x i8] }>
%"struct.std::__1::once_flag" = type { i64 }
%"class.std::__1::locale" = type { ptr }

@_ZNSt3__14coutE = external global %"class.std::__1::basic_ostream", align 8
@_ZNSt3__15ctypeIcE2idE = external global %"class.std::__1::locale::id", align 8

; Function Attrs: noinline norecurse ssp uwtable
define i32 @main() #0 {
  %1 = alloca i32, align 4
  %2 = alloca i32, align 4
  %3 = alloca i32, align 4
  store i32 0, ptr %1, align 4
  store i32 3, ptr %2, align 4
  %4 = load i32, ptr %2, align 4
  %5 = sdiv i32 %4, 4
  store i32 %5, ptr %3, align 4
  %6 = load i32, ptr %3, align 4
  %7 = call noundef nonnull align 8 dereferenceable(8) ptr @_ZNSt3__113basic_ostreamIcNS_11char_traitsIcEEElsEi(ptr noundef @_ZNSt3__14coutE, i32 noundef %6)
  %8 = call noundef nonnull align 8 dereferenceable(8) ptr @_ZNSt3__113basic_ostreamIcNS_11char_traitsIcEEElsB7v160006EPFRS3_S4_E(ptr noundef %7, ptr noundef @_ZNSt3__14endlB7v160006IcNS_11char_traitsIcEEEERNS_13basic_ostreamIT_T0_EES7_)
  ret i32 0
}

declare noundef nonnull align 8 dereferenceable(8) ptr @_ZNSt3__113basic_ostreamIcNS_11char_traitsIcEEElsEi(ptr noundef, i32 noundef) #1

; Function Attrs: noinline ssp uwtable
define linkonce_odr hidden noundef nonnull align 8 dereferenceable(8) ptr @_ZNSt3__113basic_ostreamIcNS_11char_traitsIcEEElsB7v160006EPFRS3_S4_E(ptr noundef %0, ptr noundef %1) #2 align 2 {
  %3 = alloca ptr, align 8
  %4 = alloca ptr, align 8
  store ptr %0, ptr %3, align 8
  store ptr %1, ptr %4, align 8
  %5 = load ptr, ptr %3, align 8
  %6 = load ptr, ptr %4, align 8
  %7 = call noundef nonnull align 8 dereferenceable(8) ptr %6(ptr noundef nonnull align 8 dereferenceable(8) %5)
  ret ptr %7
}

; Function Attrs: noinline ssp uwtable
define linkonce_odr hidden noundef nonnull align 8 dereferenceable(8) ptr @_ZNSt3__14endlB7v160006IcNS_11char_traitsIcEEEERNS_13basic_ostreamIT_T0_EES7_(ptr noundef nonnull align 8 dereferenceable(8) %0) #2 {
  %2 = alloca ptr, align 8
  store ptr %0, ptr %2, align 8
  %3 = load ptr, ptr %2, align 8
  %4 = load ptr, ptr %2, align 8
  %5 = load ptr, ptr %4, align 8
  %6 = getelementptr i8, ptr %5, i64 -24
  %7 = load i64, ptr %6, align 8
  %8 = getelementptr inbounds i8, ptr %4, i64 %7
  %9 = call signext i8 @_ZNKSt3__19basic_iosIcNS_11char_traitsIcEEE5widenB7v160006Ec(ptr noundef %8, i8 noundef signext 10)
  %10 = call noundef nonnull align 8 dereferenceable(8) ptr @_ZNSt3__113basic_ostreamIcNS_11char_traitsIcEEE3putEc(ptr noundef %3, i8 noundef signext %9)
  %11 = load ptr, ptr %2, align 8
  %12 = call noundef nonnull align 8 dereferenceable(8) ptr @_ZNSt3__113basic_ostreamIcNS_11char_traitsIcEEE5flushEv(ptr noundef %11)
  %13 = load ptr, ptr %2, align 8
  ret ptr %13
}

declare noundef nonnull align 8 dereferenceable(8) ptr @_ZNSt3__113basic_ostreamIcNS_11char_traitsIcEEE3putEc(ptr noundef, i8 noundef signext) #1

; Function Attrs: noinline ssp uwtable
define linkonce_odr hidden signext i8 @_ZNKSt3__19basic_iosIcNS_11char_traitsIcEEE5widenB7v160006Ec(ptr noundef %0, i8 noundef signext %1) #2 align 2 personality ptr @__gxx_personality_v0 {
  %3 = alloca ptr, align 8
  %4 = alloca i8, align 1
  %5 = alloca %"class.std::__1::locale", align 8
  %6 = alloca ptr, align 8
  %7 = alloca i32, align 4
  store ptr %0, ptr %3, align 8
  store i8 %1, ptr %4, align 1
  %8 = load ptr, ptr %3, align 8
  call void @_ZNKSt3__18ios_base6getlocEv(ptr sret(%"class.std::__1::locale") align 8 %5, ptr noundef %8)
  %9 = invoke noundef nonnull align 8 dereferenceable(25) ptr @_ZNSt3__19use_facetB7v160006INS_5ctypeIcEEEERKT_RKNS_6localeE(ptr noundef nonnull align 8 dereferenceable(8) %5)
          to label %10 unwind label %14

10:                                               ; preds = %2
  %11 = load i8, ptr %4, align 1
  %12 = invoke signext i8 @_ZNKSt3__15ctypeIcE5widenB7v160006Ec(ptr noundef %9, i8 noundef signext %11)
          to label %13 unwind label %14

13:                                               ; preds = %10
  call void @_ZNSt3__16localeD1Ev(ptr noundef %5)
  ret i8 %12

14:                                               ; preds = %10, %2
  %15 = landingpad { ptr, i32 }
          cleanup
  %16 = extractvalue { ptr, i32 } %15, 0
  store ptr %16, ptr %6, align 8
  %17 = extractvalue { ptr, i32 } %15, 1
  store i32 %17, ptr %7, align 4
  invoke void @_ZNSt3__16localeD1Ev(ptr noundef %5)
          to label %18 unwind label %24

18:                                               ; preds = %14
  br label %19

19:                                               ; preds = %18
  %20 = load ptr, ptr %6, align 8
  %21 = load i32, ptr %7, align 4
  %22 = insertvalue { ptr, i32 } undef, ptr %20, 0
  %23 = insertvalue { ptr, i32 } %22, i32 %21, 1
  resume { ptr, i32 } %23

24:                                               ; preds = %14
  %25 = landingpad { ptr, i32 }
          catch ptr null
  %26 = extractvalue { ptr, i32 } %25, 0
  call void @__clang_call_terminate(ptr %26) #4
  unreachable
}

declare noundef nonnull align 8 dereferenceable(8) ptr @_ZNSt3__113basic_ostreamIcNS_11char_traitsIcEEE5flushEv(ptr noundef) #1

; Function Attrs: noinline ssp uwtable
define linkonce_odr hidden noundef nonnull align 8 dereferenceable(25) ptr @_ZNSt3__19use_facetB7v160006INS_5ctypeIcEEEERKT_RKNS_6localeE(ptr noundef nonnull align 8 dereferenceable(8) %0) #2 {
  %2 = alloca ptr, align 8
  store ptr %0, ptr %2, align 8
  %3 = load ptr, ptr %2, align 8
  %4 = call ptr @_ZNKSt3__16locale9use_facetERNS0_2idE(ptr noundef %3, ptr noundef nonnull align 8 dereferenceable(12) @_ZNSt3__15ctypeIcE2idE)
  ret ptr %4
}

declare void @_ZNKSt3__18ios_base6getlocEv(ptr sret(%"class.std::__1::locale") align 8, ptr noundef) #1

declare i32 @__gxx_personality_v0(...)

; Function Attrs: noinline ssp uwtable
define linkonce_odr hidden signext i8 @_ZNKSt3__15ctypeIcE5widenB7v160006Ec(ptr noundef %0, i8 noundef signext %1) #2 align 2 {
  %3 = alloca ptr, align 8
  %4 = alloca i8, align 1
  store ptr %0, ptr %3, align 8
  store i8 %1, ptr %4, align 1
  %5 = load ptr, ptr %3, align 8
  %6 = load i8, ptr %4, align 1
  %7 = load ptr, ptr %5, align 8
  %8 = getelementptr inbounds ptr, ptr %7, i64 7
  %9 = load ptr, ptr %8, align 8
  %10 = call signext i8 %9(ptr noundef %5, i8 noundef signext %6)
  ret i8 %10
}

declare void @_ZNSt3__16localeD1Ev(ptr noundef) unnamed_addr #1

; Function Attrs: noinline noreturn nounwind
define linkonce_odr hidden void @__clang_call_terminate(ptr %0) #3 {
  %2 = call ptr @__cxa_begin_catch(ptr %0) #5
  call void @_ZSt9terminatev() #4
  unreachable
}

declare ptr @__cxa_begin_catch(ptr)

declare void @_ZSt9terminatev()

declare ptr @_ZNKSt3__16locale9use_facetERNS0_2idE(ptr noundef, ptr noundef nonnull align 8 dereferenceable(12)) #1

attributes #0 = { noinline norecurse ssp uwtable "darwin-stkchk-strong-link" "frame-pointer"="all" "min-legal-vector-width"="0" "no-trapping-math"="true" "probe-stack"="___chkstk_darwin" "stack-protector-buffer-size"="8" "target-cpu"="penryn" "target-features"="+cx16,+cx8,+fxsr,+mmx,+sahf,+sse,+sse2,+sse3,+sse4.1,+ssse3,+x87" "tune-cpu"="generic" }
attributes #1 = { "darwin-stkchk-strong-link" "frame-pointer"="all" "no-trapping-math"="true" "probe-stack"="___chkstk_darwin" "stack-protector-buffer-size"="8" "target-cpu"="penryn" "target-features"="+cx16,+cx8,+fxsr,+mmx,+sahf,+sse,+sse2,+sse3,+sse4.1,+ssse3,+x87" "tune-cpu"="generic" }
attributes #2 = { noinline ssp uwtable "darwin-stkchk-strong-link" "frame-pointer"="all" "min-legal-vector-width"="0" "no-trapping-math"="true" "probe-stack"="___chkstk_darwin" "stack-protector-buffer-size"="8" "target-cpu"="penryn" "target-features"="+cx16,+cx8,+fxsr,+mmx,+sahf,+sse,+sse2,+sse3,+sse4.1,+ssse3,+x87" "tune-cpu"="generic" }
attributes #3 = { noinline noreturn nounwind }
attributes #4 = { noreturn nounwind }
attributes #5 = { nounwind }

!llvm.module.flags = !{!0, !1, !2, !3, !4}
!llvm.ident = !{!5}

!0 = !{i32 2, !"SDK Version", [2 x i32] [i32 14, i32 2]}
!1 = !{i32 1, !"wchar_size", i32 4}
!2 = !{i32 8, !"PIC Level", i32 2}
!3 = !{i32 7, !"uwtable", i32 2}
!4 = !{i32 7, !"frame-pointer", i32 2}
!5 = !{!"Apple clang version 15.0.0 (clang-1500.1.0.2.5)"}
